target datalayout = "e-m:e-p270:32:32-p271:32:32-p272:64:64-i64:64-i128:128-f80:128-n8:16:32:64-S128"
target triple = "x86_64-pc-linux-gnu"

%struct.AlterEventTrigStmt = type { i32, ptr, i8 }

; Function Attrs: nounwind uwtable
define internal zeroext i1 @_equalAlterEventTrigStmt(ptr noundef %0, ptr noundef %1) #0 {
  %3 = alloca i1, align 1
  %4 = alloca ptr, align 8
  %5 = alloca ptr, align 8
  store ptr %0, ptr %4, align 8
  store ptr %1, ptr %5, align 8
  br label %6

6:                                                ; preds = %2
  %7 = load ptr, ptr %4, align 8
  %8 = getelementptr inbounds nuw %struct.AlterEventTrigStmt, ptr %7, i32 0, i32 1
  %9 = load ptr, ptr %8, align 8
  %10 = icmp ne ptr %9, null
  br i1 %10, label %11, label %25

11:                                               ; preds = %6
  %12 = load ptr, ptr %5, align 8
  %13 = getelementptr inbounds nuw %struct.AlterEventTrigStmt, ptr %12, i32 0, i32 1
  %14 = load ptr, ptr %13, align 8
  %15 = icmp ne ptr %14, null
  br i1 %15, label %16, label %25

16:                                               ; preds = %11
  %17 = load ptr, ptr %4, align 8
  %18 = getelementptr inbounds nuw %struct.AlterEventTrigStmt, ptr %17, i32 0, i32 1
  %19 = load ptr, ptr %18, align 8
  %20 = load ptr, ptr %5, align 8
  %21 = getelementptr inbounds nuw %struct.AlterEventTrigStmt, ptr %20, i32 0, i32 1
  %22 = load ptr, ptr %21, align 8
  %23 = call i32 @strcmp(ptr noundef %19, ptr noundef %22) #8
  %24 = icmp eq i32 %23, 0
  br i1 %24, label %34, label %33

25:                                               ; preds = %11, %6
  %26 = load ptr, ptr %4, align 8
  %27 = getelementptr inbounds nuw %struct.AlterEventTrigStmt, ptr %26, i32 0, i32 1
  %28 = load ptr, ptr %27, align 8
  %29 = load ptr, ptr %5, align 8
  %30 = getelementptr inbounds nuw %struct.AlterEventTrigStmt, ptr %29, i32 0, i32 1
  %31 = load ptr, ptr %30, align 8
  %32 = icmp eq ptr %28, %31
  br i1 %32, label %34, label %33

33:                                               ; preds = %25, %16
  store i1 false, ptr %3, align 1
  br label %49

34:                                               ; preds = %25, %16
  br label %35

35:                                               ; preds = %34
  br label %36

36:                                               ; preds = %35
  %37 = load ptr, ptr %4, align 8
  %38 = getelementptr inbounds nuw %struct.AlterEventTrigStmt, ptr %37, i32 0, i32 2
  %39 = load i8, ptr %38, align 8
  %40 = sext i8 %39 to i32
  %41 = load ptr, ptr %5, align 8
  %42 = getelementptr inbounds nuw %struct.AlterEventTrigStmt, ptr %41, i32 0, i32 2
  %43 = load i8, ptr %42, align 8
  %44 = sext i8 %43 to i32
  %45 = icmp ne i32 %40, %44
  br i1 %45, label %46, label %47

46:                                               ; preds = %36
  store i1 false, ptr %3, align 1
  br label %49

47:                                               ; preds = %36
  br label %48

48:                                               ; preds = %47
  store i1 true, ptr %3, align 1
  br label %49

49:                                               ; preds = %48, %46, %33
  %50 = load i1, ptr %3, align 1
  ret i1 %50
}